target datalayout = "e-m:e-p270:32:32-p271:32:32-p272:64:64-i64:64-i128:128-f80:128-n8:16:32:64-S128"
target triple = "x86_64-pc-linux-gnu"

%struct._smb2_fid_info_t = type { i64, i64, i64, i32, i32, i32, i32, ptr, i32, i32 }

; Function Attrs: nounwind null_pointer_is_valid sspstrong uwtable
define internal i32 @smb2_fid_info_hash(ptr noundef %0) #3 {
  %2 = alloca ptr, align 8
  %3 = alloca ptr, align 8
  %4 = alloca i32, align 4
  store ptr %0, ptr %2, align 8
  call void @llvm.lifetime.start.p0(i64 8, ptr %3) #13
  %5 = load ptr, ptr %2, align 8
  store ptr %5, ptr %3, align 8
  call void @llvm.lifetime.start.p0(i64 4, ptr %4) #13
  %6 = load ptr, ptr %3, align 8
  %7 = getelementptr inbounds nuw %struct._smb2_fid_info_t, ptr %6, i32 0, i32 0
  %8 = load i64, ptr %7, align 8
  %9 = icmp ne i64 %8, 0
  br i1 %9, label %10, label %22

10:                                               ; preds = %1
  %11 = load ptr, ptr %3, align 8
  %12 = getelementptr inbounds nuw %struct._smb2_fid_info_t, ptr %11, i32 0, i32 0
  %13 = load i64, ptr %12, align 8
  %14 = lshr i64 %13, 32
  %15 = and i64 %14, 4294967295
  %16 = load ptr, ptr %3, align 8
  %17 = getelementptr inbounds nuw %struct._smb2_fid_info_t, ptr %16, i32 0, i32 0
  %18 = load i64, ptr %17, align 8
  %19 = and i64 %18, 4294967295
  %20 = add i64 %15, %19
  %21 = trunc i64 %20 to i32
  store i32 %21, ptr %4, align 4
  br label %34

22:                                               ; preds = %1
  %23 = load ptr, ptr %3, align 8
  %24 = getelementptr inbounds nuw %struct._smb2_fid_info_t, ptr %23, i32 0, i32 1
  %25 = load i64, ptr %24, align 8
  %26 = lshr i64 %25, 32
  %27 = and i64 %26, 4294967295
  %28 = load ptr, ptr %3, align 8
  %29 = getelementptr inbounds nuw %struct._smb2_fid_info_t, ptr %28, i32 0, i32 1
  %30 = load i64, ptr %29, align 8
  %31 = and i64 %30, 4294967295
  %32 = add i64 %27, %31
  %33 = trunc i64 %32 to i32
  store i32 %33, ptr %4, align 4
  br label %34

34:                                               ; preds = %22, %10
  %35 = load i32, ptr %4, align 4
  call void @llvm.lifetime.end.p0(i64 4, ptr %4) #13
  call void @llvm.lifetime.end.p0(i64 8, ptr %3) #13
  ret i32 %35
}