; Function Attrs: mustprogress nofree norecurse nosync nounwind null_pointer_is_valid sspstrong willreturn memory(argmem: read) uwtable
define internal i32 @smb2_fid_info_hash(ptr noundef readonly captures(none) %0) #3 {
  %2 = load i64, ptr %0, align 8
  %.not = icmp eq i64 %2, 0
  br i1 %.not, label %3, label %6

3:                                                ; preds = %1
  %4 = getelementptr inbounds nuw i8, ptr %0, i64 8
  %5 = load i64, ptr %4, align 8
  br label %6

6:                                                ; preds = %1, %3
  %.sink8 = phi i64 [ %5, %3 ], [ %2, %1 ]
  %7 = lshr i64 %.sink8, 32
  %8 = add i64 %7, %.sink8
  %.0 = trunc i64 %8 to i32
  ret i32 %.0
}